; Function Attrs: mustprogress nofree norecurse nosync nounwind willreturn memory(argmem: readwrite) uwtable
define internal range(i32 -12, 1) i32 @IFN_Left_Character(ptr noundef captures(none) %0) #8 {
  %2 = getelementptr inbounds nuw i8, ptr %0, i64 12
  %3 = load i32, ptr %2, align 4, !tbaa !18
  %4 = icmp sgt i32 %3, 0
  %5 = sext i1 %4 to i32
  %spec.store.select = add nsw i32 %3, %5
  store i32 %spec.store.select, ptr %2, align 4
  %spec.select = select i1 %4, i32 0, i32 -12
  ret i32 %spec.select
}